; ModuleID = 'bench/openssl/original/ecdsa_vrf.ll'
source_filename = "bench/openssl/original/ecdsa_vrf.ll"
target datalayout = "e-m:e-p270:32:32-p271:32:32-p272:64:64-i64:64-i128:128-f80:128-n8:16:32:64-S128"
target triple = "x86_64-pc-linux-gnu"

@.str = private unnamed_addr constant [33 x i8] c"../openssl/crypto/ec/ecdsa_vrf.c\00", align 1
@__func__.ECDSA_do_verify = private unnamed_addr constant [16 x i8] c"ECDSA_do_verify\00", align 1
@__func__.ECDSA_verify = private unnamed_addr constant [13 x i8] c"ECDSA_verify\00", align 1

; Function Attrs: nounwind uwtable
define i32 @ECDSA_do_verify(ptr noundef %0, i32 noundef %1, ptr noundef %2, ptr noundef %3) local_unnamed_addr #0 {
  %5 = load ptr, ptr %3, align 8, !tbaa !3
  %6 = getelementptr inbounds nuw i8, ptr %5, i64 112
  %7 = load ptr, ptr %6, align 8, !tbaa !20
  %.not = icmp eq ptr %7, null
  br i1 %.not, label %10, label %8

8:                                                ; preds = %4
  %9 = tail call i32 %7(ptr noundef %0, i32 noundef %1, ptr noundef %2, ptr noundef nonnull %3) #2
  br label %11

10:                                               ; preds = %4
  tail call void @ERR_new() #2
  tail call void @ERR_set_debug(ptr noundef nonnull @.str, i32 noundef 31, ptr noundef nonnull @__func__.ECDSA_do_verify) #2
  tail call void (i32, i32, ptr, ...) @ERR_set_error(i32 noundef 16, i32 noundef 152, ptr noundef null) #2
  br label %11

11:                                               ; preds = %10, %8
  %.0 = phi i32 [ %9, %8 ], [ -1, %10 ]
  ret i32 %.0
}

declare void @ERR_new() local_unnamed_addr #1

declare void @ERR_set_debug(ptr noundef, i32 noundef, ptr noundef) local_unnamed_addr #1

declare void @ERR_set_error(i32 noundef, i32 noundef, ptr noundef, ...) local_unnamed_addr #1

; Function Attrs: nounwind uwtable
define i32 @ECDSA_verify(i32 noundef %0, ptr noundef %1, i32 noundef %2, ptr noundef %3, i32 noundef %4, ptr noundef %5) local_unnamed_addr #0 {
  %7 = load ptr, ptr %5, align 8, !tbaa !3
  %8 = getelementptr inbounds nuw i8, ptr %7, i64 104
  %9 = load ptr, ptr %8, align 8, !tbaa !22
  %.not = icmp eq ptr %9, null
  br i1 %.not, label %12, label %10

10:                                               ; preds = %6
  %11 = tail call i32 %9(i32 noundef %0, ptr noundef %1, i32 noundef %2, ptr noundef %3, i32 noundef %4, ptr noundef nonnull %5) #2
  br label %13

12:                                               ; preds = %6
  tail call void @ERR_new() #2
  tail call void @ERR_set_debug(ptr noundef nonnull @.str, i32 noundef 47, ptr noundef nonnull @__func__.ECDSA_verify) #2
  tail call void (i32, i32, ptr, ...) @ERR_set_error(i32 noundef 16, i32 noundef 152, ptr noundef null) #2
  br label %13

13:                                               ; preds = %12, %10
  %.0 = phi i32 [ %11, %10 ], [ -1, %12 ]
  ret i32 %.0
}


!llvm.module.flags = !{!0, !1, !2}

!0 = !{i32 1, !"wchar_size", i32 4}
!1 = !{i32 8, !"PIC Level", i32 2}
!2 = !{i32 7, !"uwtable", i32 2}
!3 = !{!4, !5, i64 0}
!4 = !{!"ec_key_st", !5, i64 0, !9, i64 8, !10, i64 16, !11, i64 24, !12, i64 32, !13, i64 40, !10, i64 48, !10, i64 52, !14, i64 56, !10, i64 60, !15, i64 64, !16, i64 80, !18, i64 88, !19, i64 96}
!5 = !{!"p1 _ZTS16ec_key_method_st", !6, i64 0}
!6 = !{!"any pointer", !7, i64 0}
!7 = !{!"omnipotent char", !8, i64 0}
!8 = !{!"Simple C/C++ TBAA"}
!9 = !{!"p1 _ZTS9engine_st", !6, i64 0}
!10 = !{!"int", !7, i64 0}
!11 = !{!"p1 _ZTS11ec_group_st", !6, i64 0}
!12 = !{!"p1 _ZTS11ec_point_st", !6, i64 0}
!13 = !{!"p1 _ZTS9bignum_st", !6, i64 0}
!14 = !{!"", !7, i64 0}
!15 = !{!"crypto_ex_data_st", !16, i64 0, !17, i64 8}
!16 = !{!"p1 _ZTS15ossl_lib_ctx_st", !6, i64 0}
!17 = !{!"p1 _ZTS13stack_st_void", !6, i64 0}
!18 = !{!"p1 omnipotent char", !6, i64 0}
!19 = !{!"long", !7, i64 0}
!20 = !{!21, !6, i64 112}
!21 = !{!"ec_key_method_st", !18, i64 0, !10, i64 8, !6, i64 16, !6, i64 24, !6, i64 32, !6, i64 40, !6, i64 48, !6, i64 56, !6, i64 64, !6, i64 72, !6, i64 80, !6, i64 88, !6, i64 96, !6, i64 104, !6, i64 112}
!22 = !{!21, !6, i64 104}
